target datalayout = "e-m:e-p270:32:32-p271:32:32-p272:64:64-i64:64-i128:128-f80:128-n8:16:32:64-S128"
target triple = "x86_64-pc-linux-gnu"

%struct.connectdata = type { %struct.Curl_llist_node, ptr, ptr, i64, ptr, i64, ptr, ptr, %struct.hostname, ptr, ptr, %struct.hostname, %struct.proxy_info, %struct.proxy_info, %struct.ip_quadruple, %struct.ip_quadruple, ptr, ptr, ptr, ptr, ptr, %struct.curltime, %struct.curltime, %struct.curltime, [2 x i32], [2 x ptr], [2 x ptr], [2 x ptr], %struct.anon, %struct.easy_pollset, %struct.ssl_primary_config, %struct.ssl_primary_config, %struct.ConnectBits, ptr, ptr, %struct.curltime, i32, i32, %struct.Curl_llist, i32, i32, %struct.ntlmdata, %struct.ntlmdata, %union.anon.1, ptr, ptr, i16, i32, i32, i32, i32, i16, i16, i8, i8, i8, i8, i8, i8, i8 }
%struct.Curl_llist_node = type { ptr, ptr, ptr, ptr }
%struct.hostname = type { ptr, ptr, ptr, ptr }
%struct.proxy_info = type { %struct.hostname, i32, i8, ptr, ptr }
%struct.ip_quadruple = type { [46 x i8], [46 x i8], i32, i32 }
%struct.anon = type { [2 x %struct.curltime], i32 }
%struct.easy_pollset = type { [5 x i32], i32, [5 x i8] }
%struct.ssl_primary_config = type { ptr, ptr, ptr, ptr, ptr, ptr, ptr, ptr, ptr, ptr, ptr, ptr, ptr, ptr, i8, i32, i8, i8 }
%struct.ConnectBits = type { i64 }
%struct.curltime = type { i64, i32 }
%struct.Curl_llist = type { ptr, ptr, ptr, i64 }
%struct.ntlmdata = type { i32, [8 x i8], i32, ptr }
%union.anon.1 = type { %struct.ftp_conn }
%struct.ftp_conn = type { %struct.pingpong, ptr, ptr, ptr, ptr, ptr, ptr, ptr, i8, i64, ptr, i64, i32, i32, i32, i32, i32, i16, i8, i8, i8, i8, i8 }
%struct.pingpong = type { i64, i8, ptr, i64, i64, %struct.curltime, i64, %struct.dynbuf, %struct.dynbuf, i64, i64, ptr, ptr }
%struct.dynbuf = type { ptr, i64, i64, i64 }
%struct.pop3_conn = type { %struct.pingpong, i32, i64, i64, %struct.SASL, ptr, i8, i8, i8 }
%struct.SASL = type { ptr, i32, ptr, i16, i16, i16, i8 }

@.str.19 = private unnamed_addr constant [5 x i8] c"-ERR\00", align 1
@.str.20 = private unnamed_addr constant [4 x i8] c"+OK\00", align 1

; Function Attrs: nounwind uwtable
define internal zeroext i1 @pop3_endofresp(ptr noundef %0, ptr noundef %1, ptr noundef %2, i64 noundef %3, ptr noundef %4) #0 {
  %6 = alloca i1, align 1
  %7 = alloca ptr, align 8
  %8 = alloca ptr, align 8
  %9 = alloca ptr, align 8
  %10 = alloca i64, align 8
  %11 = alloca ptr, align 8
  %12 = alloca ptr, align 8
  %13 = alloca i32, align 4
  store ptr %0, ptr %7, align 8, !tbaa !3
  store ptr %1, ptr %8, align 8, !tbaa !8
  store ptr %2, ptr %9, align 8, !tbaa !110
  store i64 %3, ptr %10, align 8, !tbaa !111
  store ptr %4, ptr %11, align 8, !tbaa !106
  call void @llvm.lifetime.start.p0(i64 8, ptr %12) #4
  %14 = load ptr, ptr %8, align 8, !tbaa !8
  %15 = getelementptr inbounds nuw %struct.connectdata, ptr %14, i32 0, i32 43
  store ptr %15, ptr %12, align 8, !tbaa !91
  %16 = load i64, ptr %10, align 8, !tbaa !111
  %17 = icmp uge i64 %16, 4
  br i1 %17, label %18, label %24

18:                                               ; preds = %5
  %19 = load ptr, ptr %9, align 8, !tbaa !110
  %20 = call i32 @memcmp(ptr noundef @.str.19, ptr noundef %19, i64 noundef 4) #5
  %21 = icmp ne i32 %20, 0
  br i1 %21, label %24, label %22

22:                                               ; preds = %18
  %23 = load ptr, ptr %11, align 8, !tbaa !106
  store i32 45, ptr %23, align 4, !tbaa !10
  store i1 true, ptr %6, align 1
  store i32 1, ptr %13, align 4
  br label %64

24:                                               ; preds = %18, %5
  %25 = load ptr, ptr %12, align 8, !tbaa !91
  %26 = getelementptr inbounds nuw %struct.pop3_conn, ptr %25, i32 0, i32 1
  %27 = load i32, ptr %26, align 8, !tbaa !105
  %28 = icmp eq i32 %27, 2
  br i1 %28, label %29, label %43

29:                                               ; preds = %24
  %30 = load i64, ptr %10, align 8, !tbaa !111
  %31 = icmp uge i64 %30, 1
  br i1 %31, label %32, label %40

32:                                               ; preds = %29
  %33 = load ptr, ptr %9, align 8, !tbaa !110
  %34 = getelementptr inbounds i8, ptr %33, i64 0
  %35 = load i8, ptr %34, align 1, !tbaa !16
  %36 = sext i8 %35 to i32
  %37 = icmp eq i32 %36, 46
  br i1 %37, label %38, label %40

38:                                               ; preds = %32
  %39 = load ptr, ptr %11, align 8, !tbaa !106
  store i32 43, ptr %39, align 4, !tbaa !10
  br label %42

40:                                               ; preds = %32, %29
  %41 = load ptr, ptr %11, align 8, !tbaa !106
  store i32 42, ptr %41, align 4, !tbaa !10
  br label %42

42:                                               ; preds = %40, %38
  store i1 true, ptr %6, align 1
  store i32 1, ptr %13, align 4
  br label %64

43:                                               ; preds = %24
  %44 = load i64, ptr %10, align 8, !tbaa !111
  %45 = icmp uge i64 %44, 3
  br i1 %45, label %46, label %52

46:                                               ; preds = %43
  %47 = load ptr, ptr %9, align 8, !tbaa !110
  %48 = call i32 @memcmp(ptr noundef @.str.20, ptr noundef %47, i64 noundef 3) #5
  %49 = icmp ne i32 %48, 0
  br i1 %49, label %52, label %50

50:                                               ; preds = %46
  %51 = load ptr, ptr %11, align 8, !tbaa !106
  store i32 43, ptr %51, align 4, !tbaa !10
  store i1 true, ptr %6, align 1
  store i32 1, ptr %13, align 4
  br label %64

52:                                               ; preds = %46, %43
  %53 = load i64, ptr %10, align 8, !tbaa !111
  %54 = icmp uge i64 %53, 1
  br i1 %54, label %55, label %63

55:                                               ; preds = %52
  %56 = load ptr, ptr %9, align 8, !tbaa !110
  %57 = getelementptr inbounds i8, ptr %56, i64 0
  %58 = load i8, ptr %57, align 1, !tbaa !16
  %59 = sext i8 %58 to i32
  %60 = icmp eq i32 %59, 43
  br i1 %60, label %61, label %63

61:                                               ; preds = %55
  %62 = load ptr, ptr %11, align 8, !tbaa !106
  store i32 42, ptr %62, align 4, !tbaa !10
  store i1 true, ptr %6, align 1
  store i32 1, ptr %13, align 4
  br label %64

63:                                               ; preds = %55, %52
  store i1 false, ptr %6, align 1
  store i32 1, ptr %13, align 4
  br label %64

64:                                               ; preds = %63, %61, %50, %42, %22
  call void @llvm.lifetime.end.p0(i64 8, ptr %12) #4
  %65 = load i1, ptr %6, align 1
  ret i1 %65
}