; Function Attrs: mustprogress nofree nounwind willreturn memory(argmem: readwrite) uwtable
define internal noundef zeroext i1 @pop3_endofresp(ptr readnone captures(none) %0, ptr noundef readonly captures(none) %1, ptr noundef readonly captures(none) %2, i64 noundef %3, ptr noundef writeonly captures(none) %4) #3 {
  %6 = icmp ugt i64 %3, 3
  br i1 %6, label %7, label %8

7:                                                ; preds = %5
  %bcmp = tail call i32 @bcmp(ptr noundef nonnull dereferenceable(4) @.str.19, ptr noundef nonnull dereferenceable(4) %2, i64 4)
  %.not = icmp eq i32 %bcmp, 0
  br i1 %.not, label %.sink.split, label %8

8:                                                ; preds = %7, %5
  %9 = getelementptr inbounds nuw i8, ptr %1, i64 1248
  %10 = load i32, ptr %9, align 8, !tbaa !86
  %11 = icmp eq i32 %10, 2
  br i1 %11, label %12, label %17

12:                                               ; preds = %8
  %.not18 = icmp eq i64 %3, 0
  br i1 %.not18, label %16, label %13

13:                                               ; preds = %12
  %14 = load i8, ptr %2, align 1, !tbaa !7
  %15 = icmp eq i8 %14, 46
  br i1 %15, label %.sink.split, label %16

16:                                               ; preds = %13, %12
  br label %.sink.split

17:                                               ; preds = %8
  %18 = icmp ugt i64 %3, 2
  br i1 %18, label %19, label %20

19:                                               ; preds = %17
  %bcmp15 = tail call i32 @bcmp(ptr noundef nonnull dereferenceable(3) @.str.20, ptr noundef nonnull dereferenceable(3) %2, i64 3)
  %.not16 = icmp eq i32 %bcmp15, 0
  br i1 %.not16, label %.sink.split, label %.thread

20:                                               ; preds = %17
  %.not17 = icmp eq i64 %3, 0
  br i1 %.not17, label %23, label %.thread

.thread:                                          ; preds = %19, %20
  %21 = load i8, ptr %2, align 1, !tbaa !7
  %22 = icmp eq i8 %21, 43
  br i1 %22, label %.sink.split, label %23

.sink.split:                                      ; preds = %.thread, %19, %16, %13, %7
  %.sink = phi i32 [ 45, %7 ], [ 42, %16 ], [ 43, %13 ], [ 43, %19 ], [ 42, %.thread ]
  store i32 %.sink, ptr %4, align 4, !tbaa !125
  br label %23

23:                                               ; preds = %.sink.split, %20, %.thread
  %.0 = phi i1 [ false, %.thread ], [ false, %20 ], [ true, %.sink.split ]
  ret i1 %.0
}